target datalayout = "e-m:e-p270:32:32-p271:32:32-p272:64:64-i64:64-i128:128-f80:128-n8:16:32:64-S128"
target triple = "x86_64-pc-linux-gnu"

%struct.packet_range_tag = type { i32, i8, i8, i8, ptr, i32, ptr, i32, ptr, i32, i32, i32, i32, i32, i32, i32, i32, i32, i32, i32, i32, i32, i32, i32, i32, i32, i32, i32, i32, i32, i32, i32, i32, i32, i32, i32, ptr, ptr, ptr, ptr, ptr, ptr, ptr, ptr, i8, i32 }

; Function Attrs: null_pointer_is_valid sspstrong uwtable
define hidden void @packet_range_cleanup(ptr noundef %0) #0 {
  %2 = alloca ptr, align 8
  store ptr %0, ptr %2, align 8
  %3 = load ptr, ptr %2, align 8
  %4 = getelementptr inbounds nuw %struct.packet_range_tag, ptr %3, i32 0, i32 4
  %5 = load ptr, ptr %4, align 8
  call void @wmem_free(ptr noundef null, ptr noundef %5)
  %6 = load ptr, ptr %2, align 8
  %7 = getelementptr inbounds nuw %struct.packet_range_tag, ptr %6, i32 0, i32 6
  %8 = load ptr, ptr %7, align 8
  call void @wmem_free(ptr noundef null, ptr noundef %8)
  %9 = load ptr, ptr %2, align 8
  %10 = getelementptr inbounds nuw %struct.packet_range_tag, ptr %9, i32 0, i32 36
  %11 = load ptr, ptr %10, align 8
  call void @g_hash_table_destroy(ptr noundef %11)
  %12 = load ptr, ptr %2, align 8
  %13 = getelementptr inbounds nuw %struct.packet_range_tag, ptr %12, i32 0, i32 37
  %14 = load ptr, ptr %13, align 8
  call void @g_hash_table_destroy(ptr noundef %14)
  %15 = load ptr, ptr %2, align 8
  %16 = getelementptr inbounds nuw %struct.packet_range_tag, ptr %15, i32 0, i32 38
  %17 = load ptr, ptr %16, align 8
  call void @g_hash_table_destroy(ptr noundef %17)
  %18 = load ptr, ptr %2, align 8
  %19 = getelementptr inbounds nuw %struct.packet_range_tag, ptr %18, i32 0, i32 39
  %20 = load ptr, ptr %19, align 8
  call void @g_hash_table_destroy(ptr noundef %20)
  %21 = load ptr, ptr %2, align 8
  %22 = getelementptr inbounds nuw %struct.packet_range_tag, ptr %21, i32 0, i32 40
  %23 = load ptr, ptr %22, align 8
  call void @g_hash_table_destroy(ptr noundef %23)
  %24 = load ptr, ptr %2, align 8
  %25 = getelementptr inbounds nuw %struct.packet_range_tag, ptr %24, i32 0, i32 41
  %26 = load ptr, ptr %25, align 8
  call void @g_hash_table_destroy(ptr noundef %26)
  %27 = load ptr, ptr %2, align 8
  %28 = getelementptr inbounds nuw %struct.packet_range_tag, ptr %27, i32 0, i32 42
  %29 = load ptr, ptr %28, align 8
  call void @g_hash_table_destroy(ptr noundef %29)
  %30 = load ptr, ptr %2, align 8
  %31 = getelementptr inbounds nuw %struct.packet_range_tag, ptr %30, i32 0, i32 43
  %32 = load ptr, ptr %31, align 8
  call void @g_hash_table_destroy(ptr noundef %32)
  ret void
}