; Function Attrs: null_pointer_is_valid sspstrong uwtable
define hidden void @packet_range_cleanup(ptr noundef readonly captures(none) %0) local_unnamed_addr #0 {
  %2 = getelementptr inbounds nuw i8, ptr %0, i64 8
  %3 = load ptr, ptr %2, align 8
  tail call void @wmem_free(ptr noundef null, ptr noundef %3)
  %4 = getelementptr inbounds nuw i8, ptr %0, i64 24
  %5 = load ptr, ptr %4, align 8
  tail call void @wmem_free(ptr noundef null, ptr noundef %5)
  %6 = getelementptr inbounds nuw i8, ptr %0, i64 160
  %7 = load ptr, ptr %6, align 8
  tail call void @g_hash_table_destroy(ptr noundef %7)
  %8 = getelementptr inbounds nuw i8, ptr %0, i64 168
  %9 = load ptr, ptr %8, align 8
  tail call void @g_hash_table_destroy(ptr noundef %9)
  %10 = getelementptr inbounds nuw i8, ptr %0, i64 176
  %11 = load ptr, ptr %10, align 8
  tail call void @g_hash_table_destroy(ptr noundef %11)
  %12 = getelementptr inbounds nuw i8, ptr %0, i64 184
  %13 = load ptr, ptr %12, align 8
  tail call void @g_hash_table_destroy(ptr noundef %13)
  %14 = getelementptr inbounds nuw i8, ptr %0, i64 192
  %15 = load ptr, ptr %14, align 8
  tail call void @g_hash_table_destroy(ptr noundef %15)
  %16 = getelementptr inbounds nuw i8, ptr %0, i64 200
  %17 = load ptr, ptr %16, align 8
  tail call void @g_hash_table_destroy(ptr noundef %17)
  %18 = getelementptr inbounds nuw i8, ptr %0, i64 208
  %19 = load ptr, ptr %18, align 8
  tail call void @g_hash_table_destroy(ptr noundef %19)
  %20 = getelementptr inbounds nuw i8, ptr %0, i64 216
  %21 = load ptr, ptr %20, align 8
  tail call void @g_hash_table_destroy(ptr noundef %21)
  ret void
}